; Function Attrs: mustprogress nounwind uwtable
define hidden noundef zeroext i1 @_ZNK12ZUncommitter15should_continueEv(ptr noundef nonnull align 8 dereferenceable(1017) %0) local_unnamed_addr #1 align 2 {
_ZN7ZLockerI14ZConditionLockED2Ev.exit:
  %1 = getelementptr inbounds i8, ptr %0, i64 928
  %2 = tail call i32 @pthread_mutex_lock(ptr noundef nonnull %1) #9
  %3 = getelementptr inbounds i8, ptr %0, i64 1016
  %4 = load i8, ptr %3, align 8
  %5 = trunc i8 %4 to i1
  %6 = xor i1 %5, true
  %7 = tail call i32 @pthread_mutex_unlock(ptr noundef nonnull %1) #9
  ret i1 %6
}